target datalayout = "e-m:e-p270:32:32-p271:32:32-p272:64:64-i64:64-i128:128-f80:128-n8:16:32:64-S128"
target triple = "x86_64-pc-linux-gnu"

%"struct.llvm::MCFixupKindInfo" = type { ptr, i32, i32, i32 }

; Function Attrs: mustprogress nounwind uwtable
define dso_local noundef nonnull align 8 dereferenceable(24) ptr @_ZNK4llvm15RISCVAsmBackend16getFixupKindInfoENS_11MCFixupKindE(ptr noundef nonnull align 8 dereferenceable(40) %0, i32 noundef %1) unnamed_addr #1 align 2 {
  %3 = alloca ptr, align 8
  %4 = alloca ptr, align 8
  %5 = alloca i32, align 4
  store ptr %0, ptr %4, align 8
  store i32 %1, ptr %5, align 4
  %6 = load ptr, ptr %4, align 8
  %7 = load i32, ptr %5, align 4
  %8 = icmp sge i32 %7, 256
  br i1 %8, label %9, label %11

9:                                                ; preds = %2
  %10 = call noundef nonnull align 8 dereferenceable(24) ptr @_ZNK4llvm12MCAsmBackend16getFixupKindInfoENS_11MCFixupKindE(ptr noundef nonnull align 8 dereferenceable(16) %6, i32 noundef 0)
  store ptr %10, ptr %3, align 8
  br label %22

11:                                               ; preds = %2
  %12 = load i32, ptr %5, align 4
  %13 = icmp slt i32 %12, 128
  br i1 %13, label %14, label %17

14:                                               ; preds = %11
  %15 = load i32, ptr %5, align 4
  %16 = call noundef nonnull align 8 dereferenceable(24) ptr @_ZNK4llvm12MCAsmBackend16getFixupKindInfoENS_11MCFixupKindE(ptr noundef nonnull align 8 dereferenceable(16) %6, i32 noundef %15)
  store ptr %16, ptr %3, align 8
  br label %22

17:                                               ; preds = %11
  %18 = load i32, ptr %5, align 4
  %19 = sub nsw i32 %18, 128
  %20 = sext i32 %19 to i64
  %21 = getelementptr inbounds [26 x %"struct.llvm::MCFixupKindInfo"], ptr @_ZZNK4llvm15RISCVAsmBackend16getFixupKindInfoENS_11MCFixupKindEE5Infos, i64 0, i64 %20
  store ptr %21, ptr %3, align 8
  br label %22

22:                                               ; preds = %17, %14, %9
  %23 = load ptr, ptr %3, align 8
  ret ptr %23
}